target datalayout = "e-m:e-p270:32:32-p271:32:32-p272:64:64-i64:64-i128:128-f80:128-n8:16:32:64-S128"
target triple = "x86_64-pc-linux-gnu"

%struct.CORD_Pos = type { i64, i32, ptr, i64, i64, [49 x %struct.CORD_pe], [8 x i8] }
%struct.CORD_pe = type { ptr, i64 }

; Function Attrs: nounwind uwtable
define void @CORD__prev(ptr noundef %0) #0 {
  %2 = alloca ptr, align 8
  %3 = alloca ptr, align 8
  %4 = alloca i32, align 4
  %5 = alloca ptr, align 8
  store ptr %0, ptr %2, align 8, !tbaa !53
  call void @llvm.lifetime.start.p0(i64 8, ptr %3) #9
  %6 = load ptr, ptr %2, align 8, !tbaa !53
  %7 = getelementptr inbounds %struct.CORD_Pos, ptr %6, i64 0
  %8 = getelementptr inbounds nuw %struct.CORD_Pos, ptr %7, i32 0, i32 5
  %9 = load ptr, ptr %2, align 8, !tbaa !53
  %10 = getelementptr inbounds %struct.CORD_Pos, ptr %9, i64 0
  %11 = getelementptr inbounds nuw %struct.CORD_Pos, ptr %10, i32 0, i32 1
  %12 = load i32, ptr %11, align 8, !tbaa !55
  %13 = sext i32 %12 to i64
  %14 = getelementptr inbounds [49 x %struct.CORD_pe], ptr %8, i64 0, i64 %13
  store ptr %14, ptr %3, align 8, !tbaa !57
  %15 = load ptr, ptr %2, align 8, !tbaa !53
  %16 = getelementptr inbounds %struct.CORD_Pos, ptr %15, i64 0
  %17 = getelementptr inbounds nuw %struct.CORD_Pos, ptr %16, i32 0, i32 0
  %18 = load i64, ptr %17, align 8, !tbaa !61
  %19 = icmp eq i64 %18, 0
  br i1 %19, label %20, label %24

20:                                               ; preds = %1
  %21 = load ptr, ptr %2, align 8, !tbaa !53
  %22 = getelementptr inbounds %struct.CORD_Pos, ptr %21, i64 0
  %23 = getelementptr inbounds nuw %struct.CORD_Pos, ptr %22, i32 0, i32 1
  store i32 1431655765, ptr %23, align 8, !tbaa !55
  store i32 1, ptr %4, align 4
  br label %82

24:                                               ; preds = %1
  %25 = load ptr, ptr %2, align 8, !tbaa !53
  %26 = getelementptr inbounds %struct.CORD_Pos, ptr %25, i64 0
  %27 = getelementptr inbounds nuw %struct.CORD_Pos, ptr %26, i32 0, i32 0
  %28 = load i64, ptr %27, align 8, !tbaa !61
  %29 = add i64 %28, -1
  store i64 %29, ptr %27, align 8, !tbaa !61
  %30 = load ptr, ptr %2, align 8, !tbaa !53
  %31 = getelementptr inbounds %struct.CORD_Pos, ptr %30, i64 0
  %32 = getelementptr inbounds nuw %struct.CORD_Pos, ptr %31, i32 0, i32 0
  %33 = load i64, ptr %32, align 8, !tbaa !61
  %34 = load ptr, ptr %3, align 8, !tbaa !57
  %35 = getelementptr inbounds nuw %struct.CORD_pe, ptr %34, i32 0, i32 1
  %36 = load i64, ptr %35, align 8, !tbaa !62
  %37 = icmp uge i64 %33, %36
  br i1 %37, label %38, label %39

38:                                               ; preds = %24
  store i32 1, ptr %4, align 4
  br label %82

39:                                               ; preds = %24
  call void @llvm.lifetime.start.p0(i64 8, ptr %5) #9
  %40 = load ptr, ptr %2, align 8, !tbaa !53
  %41 = getelementptr inbounds %struct.CORD_Pos, ptr %40, i64 0
  %42 = getelementptr inbounds nuw %struct.CORD_Pos, ptr %41, i32 0, i32 5
  %43 = load ptr, ptr %2, align 8, !tbaa !53
  %44 = getelementptr inbounds %struct.CORD_Pos, ptr %43, i64 0
  %45 = getelementptr inbounds nuw %struct.CORD_Pos, ptr %44, i32 0, i32 1
  %46 = load i32, ptr %45, align 8, !tbaa !55
  %47 = sext i32 %46 to i64
  %48 = getelementptr inbounds [49 x %struct.CORD_pe], ptr %42, i64 0, i64 %47
  store ptr %48, ptr %5, align 8, !tbaa !57
  br label %49

49:                                               ; preds = %67, %39
  %50 = load ptr, ptr %2, align 8, !tbaa !53
  %51 = getelementptr inbounds %struct.CORD_Pos, ptr %50, i64 0
  %52 = getelementptr inbounds nuw %struct.CORD_Pos, ptr %51, i32 0, i32 1
  %53 = load i32, ptr %52, align 8, !tbaa !55
  %54 = icmp sgt i32 %53, 0
  br i1 %54, label %55, label %65

55:                                               ; preds = %49
  %56 = load ptr, ptr %5, align 8, !tbaa !57
  %57 = getelementptr inbounds %struct.CORD_pe, ptr %56, i64 0
  %58 = getelementptr inbounds nuw %struct.CORD_pe, ptr %57, i32 0, i32 1
  %59 = load i64, ptr %58, align 8, !tbaa !62
  %60 = load ptr, ptr %5, align 8, !tbaa !57
  %61 = getelementptr inbounds %struct.CORD_pe, ptr %60, i64 -1
  %62 = getelementptr inbounds nuw %struct.CORD_pe, ptr %61, i32 0, i32 1
  %63 = load i64, ptr %62, align 8, !tbaa !62
  %64 = icmp eq i64 %59, %63
  br label %65

65:                                               ; preds = %55, %49
  %66 = phi i1 [ false, %49 ], [ %64, %55 ]
  br i1 %66, label %67, label %75

67:                                               ; preds = %65
  %68 = load ptr, ptr %2, align 8, !tbaa !53
  %69 = getelementptr inbounds %struct.CORD_Pos, ptr %68, i64 0
  %70 = getelementptr inbounds nuw %struct.CORD_Pos, ptr %69, i32 0, i32 1
  %71 = load i32, ptr %70, align 8, !tbaa !55
  %72 = add nsw i32 %71, -1
  store i32 %72, ptr %70, align 8, !tbaa !55
  %73 = load ptr, ptr %5, align 8, !tbaa !57
  %74 = getelementptr inbounds %struct.CORD_pe, ptr %73, i32 -1
  store ptr %74, ptr %5, align 8, !tbaa !57
  br label %49, !llvm.loop !69

75:                                               ; preds = %65
  call void @llvm.lifetime.end.p0(i64 8, ptr %5) #9
  %76 = load ptr, ptr %2, align 8, !tbaa !53
  %77 = getelementptr inbounds %struct.CORD_Pos, ptr %76, i64 0
  %78 = getelementptr inbounds nuw %struct.CORD_Pos, ptr %77, i32 0, i32 1
  %79 = load i32, ptr %78, align 8, !tbaa !55
  %80 = add nsw i32 %79, -1
  store i32 %80, ptr %78, align 8, !tbaa !55
  %81 = load ptr, ptr %2, align 8, !tbaa !53
  call void @CORD_extend_path(ptr noundef %81)
  store i32 0, ptr %4, align 4
  br label %82

82:                                               ; preds = %75, %38, %20
  call void @llvm.lifetime.end.p0(i64 8, ptr %3) #9
  %83 = load i32, ptr %4, align 4
  switch i32 %83, label %85 [
    i32 0, label %84
    i32 1, label %84
  ]

84:                                               ; preds = %82, %82
  ret void

85:                                               ; preds = %82
  unreachable
}