; Function Attrs: nofree nounwind memory(read, argmem: readwrite, inaccessiblemem: none) uwtable
define void @CORD__prev(ptr noundef captures(none) %0) local_unnamed_addr #11 {
  %2 = getelementptr inbounds nuw i8, ptr %0, i64 40
  %3 = getelementptr inbounds nuw i8, ptr %0, i64 8
  %4 = load i64, ptr %0, align 8, !tbaa !52
  %5 = icmp eq i64 %4, 0
  br i1 %5, label %6, label %7

6:                                                ; preds = %1
  store i32 1431655765, ptr %3, align 8, !tbaa !47
  br label %27

7:                                                ; preds = %1
  %8 = load i32, ptr %3, align 8, !tbaa !47
  %9 = sext i32 %8 to i64
  %10 = add i64 %4, -1
  store i64 %10, ptr %0, align 8, !tbaa !52
  %.idx = shl nsw i64 %9, 4
  %.offs = or disjoint i64 %.idx, 8
  %11 = getelementptr inbounds i8, ptr %2, i64 %.offs
  %12 = load i64, ptr %11, align 8, !tbaa !53
  %.not = icmp ult i64 %10, %12
  br i1 %.not, label %13, label %27

13:                                               ; preds = %7
  %14 = icmp sgt i32 %8, 0
  br i1 %14, label %.lr.ph.preheader, label %.critedge

.lr.ph.preheader:                                 ; preds = %13
  %15 = getelementptr inbounds nuw [49 x %struct.CORD_pe], ptr %2, i64 0, i64 %9
  br label %.lr.ph

.lr.ph:                                           ; preds = %.lr.ph.preheader, %22
  %.018 = phi ptr [ %23, %22 ], [ %15, %.lr.ph.preheader ]
  %16 = phi i32 [ %24, %22 ], [ %8, %.lr.ph.preheader ]
  %17 = getelementptr inbounds nuw i8, ptr %.018, i64 8
  %18 = load i64, ptr %17, align 8, !tbaa !53
  %19 = getelementptr inbounds i8, ptr %.018, i64 -8
  %20 = load i64, ptr %19, align 8, !tbaa !53
  %21 = icmp eq i64 %18, %20
  br i1 %21, label %22, label %.critedge

22:                                               ; preds = %.lr.ph
  %23 = getelementptr inbounds i8, ptr %.018, i64 -16
  %24 = add nsw i32 %16, -1
  %25 = icmp sgt i32 %16, 1
  br i1 %25, label %.lr.ph, label %.critedge, !llvm.loop !61

.critedge:                                        ; preds = %.lr.ph, %22, %13
  %.lcssa = phi i32 [ %8, %13 ], [ 0, %22 ], [ %16, %.lr.ph ]
  %26 = add nsw i32 %.lcssa, -1
  store i32 %26, ptr %3, align 8, !tbaa !47
  tail call fastcc void @CORD_extend_path(ptr noundef nonnull %0)
  br label %27

27:                                               ; preds = %7, %.critedge, %6
  ret void
}